target datalayout = "e-m:e-p270:32:32-p271:32:32-p272:64:64-i64:64-i128:128-f80:128-n8:16:32:64-S128"
target triple = "x86_64-pc-linux-gnu"

%struct.SN_env = type { ptr, i32, i32, i32, i32, i32, ptr, ptr }

@s_102 = internal constant [4 x i8] c"\CE\B7\CF\83", align 1

; Function Attrs: nounwind uwtable
define internal i32 @r_step5j(ptr noundef %0) #0 {
  %2 = alloca i32, align 4
  %3 = alloca ptr, align 8
  %4 = alloca i32, align 4
  %5 = alloca i32, align 4
  %6 = alloca i32, align 4
  store ptr %0, ptr %3, align 8
  %7 = load ptr, ptr %3, align 8
  %8 = getelementptr inbounds nuw %struct.SN_env, ptr %7, i32 0, i32 1
  %9 = load i32, ptr %8, align 8
  %10 = load ptr, ptr %3, align 8
  %11 = getelementptr inbounds nuw %struct.SN_env, ptr %10, i32 0, i32 5
  store i32 %9, ptr %11, align 8
  %12 = load ptr, ptr %3, align 8
  %13 = call i32 @find_among_b(ptr noundef %12, ptr noundef @a_57, i32 noundef 3)
  %14 = icmp ne i32 %13, 0
  br i1 %14, label %16, label %15

15:                                               ; preds = %1
  store i32 0, ptr %2, align 4
  br label %93

16:                                               ; preds = %1
  %17 = load ptr, ptr %3, align 8
  %18 = getelementptr inbounds nuw %struct.SN_env, ptr %17, i32 0, i32 1
  %19 = load i32, ptr %18, align 8
  %20 = load ptr, ptr %3, align 8
  %21 = getelementptr inbounds nuw %struct.SN_env, ptr %20, i32 0, i32 4
  store i32 %19, ptr %21, align 4
  call void @llvm.lifetime.start.p0(i64 4, ptr %4) #3
  %22 = load ptr, ptr %3, align 8
  %23 = call i32 @slice_del(ptr noundef %22)
  store i32 %23, ptr %4, align 4
  %24 = load i32, ptr %4, align 4
  %25 = icmp slt i32 %24, 0
  br i1 %25, label %26, label %28

26:                                               ; preds = %16
  %27 = load i32, ptr %4, align 4
  store i32 %27, ptr %2, align 4
  store i32 1, ptr %5, align 4
  br label %29

28:                                               ; preds = %16
  store i32 0, ptr %5, align 4
  br label %29

29:                                               ; preds = %28, %26
  call void @llvm.lifetime.end.p0(i64 4, ptr %4) #3
  %30 = load i32, ptr %5, align 4
  switch i32 %30, label %95 [
    i32 0, label %31
    i32 1, label %93
  ]

31:                                               ; preds = %29
  %32 = load ptr, ptr %3, align 8
  %33 = getelementptr inbounds nuw %struct.SN_env, ptr %32, i32 0, i32 7
  %34 = load ptr, ptr %33, align 8
  %35 = getelementptr inbounds i32, ptr %34, i64 0
  store i32 0, ptr %35, align 4
  %36 = load ptr, ptr %3, align 8
  %37 = getelementptr inbounds nuw %struct.SN_env, ptr %36, i32 0, i32 1
  %38 = load i32, ptr %37, align 8
  %39 = load ptr, ptr %3, align 8
  %40 = getelementptr inbounds nuw %struct.SN_env, ptr %39, i32 0, i32 5
  store i32 %38, ptr %40, align 8
  %41 = load ptr, ptr %3, align 8
  %42 = getelementptr inbounds nuw %struct.SN_env, ptr %41, i32 0, i32 1
  %43 = load i32, ptr %42, align 8
  %44 = load ptr, ptr %3, align 8
  %45 = getelementptr inbounds nuw %struct.SN_env, ptr %44, i32 0, i32 4
  store i32 %43, ptr %45, align 4
  %46 = load ptr, ptr %3, align 8
  %47 = getelementptr inbounds nuw %struct.SN_env, ptr %46, i32 0, i32 1
  %48 = load i32, ptr %47, align 8
  %49 = sub i32 %48, 1
  %50 = load ptr, ptr %3, align 8
  %51 = getelementptr inbounds nuw %struct.SN_env, ptr %50, i32 0, i32 3
  %52 = load i32, ptr %51, align 8
  %53 = icmp sle i32 %49, %52
  br i1 %53, label %67, label %54

54:                                               ; preds = %31
  %55 = load ptr, ptr %3, align 8
  %56 = getelementptr inbounds nuw %struct.SN_env, ptr %55, i32 0, i32 0
  %57 = load ptr, ptr %56, align 8
  %58 = load ptr, ptr %3, align 8
  %59 = getelementptr inbounds nuw %struct.SN_env, ptr %58, i32 0, i32 1
  %60 = load i32, ptr %59, align 8
  %61 = sub i32 %60, 1
  %62 = sext i32 %61 to i64
  %63 = getelementptr inbounds i8, ptr %57, i64 %62
  %64 = load i8, ptr %63, align 1
  %65 = zext i8 %64 to i32
  %66 = icmp ne i32 %65, 189
  br i1 %66, label %67, label %68

67:                                               ; preds = %54, %31
  store i32 0, ptr %2, align 4
  br label %93

68:                                               ; preds = %54
  %69 = load ptr, ptr %3, align 8
  %70 = call i32 @find_among_b(ptr noundef %69, ptr noundef @a_58, i32 noundef 6)
  %71 = icmp ne i32 %70, 0
  br i1 %71, label %73, label %72

72:                                               ; preds = %68
  store i32 0, ptr %2, align 4
  br label %93

73:                                               ; preds = %68
  %74 = load ptr, ptr %3, align 8
  %75 = getelementptr inbounds nuw %struct.SN_env, ptr %74, i32 0, i32 1
  %76 = load i32, ptr %75, align 8
  %77 = load ptr, ptr %3, align 8
  %78 = getelementptr inbounds nuw %struct.SN_env, ptr %77, i32 0, i32 3
  %79 = load i32, ptr %78, align 8
  %80 = icmp sgt i32 %76, %79
  br i1 %80, label %81, label %82

81:                                               ; preds = %73
  store i32 0, ptr %2, align 4
  br label %93

82:                                               ; preds = %73
  call void @llvm.lifetime.start.p0(i64 4, ptr %6) #3
  %83 = load ptr, ptr %3, align 8
  %84 = call i32 @slice_from_s(ptr noundef %83, i32 noundef 4, ptr noundef @s_102)
  store i32 %84, ptr %6, align 4
  %85 = load i32, ptr %6, align 4
  %86 = icmp slt i32 %85, 0
  br i1 %86, label %87, label %89

87:                                               ; preds = %82
  %88 = load i32, ptr %6, align 4
  store i32 %88, ptr %2, align 4
  store i32 1, ptr %5, align 4
  br label %90

89:                                               ; preds = %82
  store i32 0, ptr %5, align 4
  br label %90

90:                                               ; preds = %89, %87
  call void @llvm.lifetime.end.p0(i64 4, ptr %6) #3
  %91 = load i32, ptr %5, align 4
  switch i32 %91, label %95 [
    i32 0, label %92
    i32 1, label %93
  ]

92:                                               ; preds = %90
  store i32 1, ptr %2, align 4
  br label %93

93:                                               ; preds = %92, %90, %81, %72, %67, %29, %15
  %94 = load i32, ptr %2, align 4
  ret i32 %94

95:                                               ; preds = %90, %29
  unreachable
}