; Function Attrs: nounwind uwtable
define internal fastcc i32 @r_step5j(ptr noundef initializes((24, 28)) %0) unnamed_addr #0 {
  %2 = getelementptr inbounds nuw i8, ptr %0, i64 8
  %3 = load i32, ptr %2, align 8
  %4 = getelementptr inbounds nuw i8, ptr %0, i64 24
  store i32 %3, ptr %4, align 8
  %5 = tail call i32 @find_among_b(ptr noundef %0, ptr noundef nonnull @a_57, i32 noundef 3) #2
  %.not = icmp eq i32 %5, 0
  br i1 %.not, label %32, label %6

6:                                                ; preds = %1
  %7 = load i32, ptr %2, align 8
  %8 = getelementptr inbounds nuw i8, ptr %0, i64 20
  store i32 %7, ptr %8, align 4
  %9 = tail call i32 @slice_del(ptr noundef nonnull %0) #2
  %10 = icmp sgt i32 %9, -1
  br i1 %10, label %11, label %32

11:                                               ; preds = %6
  %12 = getelementptr inbounds nuw i8, ptr %0, i64 40
  %13 = load ptr, ptr %12, align 8
  store i32 0, ptr %13, align 4
  %14 = load i32, ptr %2, align 8
  store i32 %14, ptr %4, align 8
  store i32 %14, ptr %8, align 4
  %15 = add i32 %14, -1
  %16 = getelementptr inbounds nuw i8, ptr %0, i64 16
  %17 = load i32, ptr %16, align 8
  %.not29 = icmp sgt i32 %15, %17
  br i1 %.not29, label %18, label %32

18:                                               ; preds = %11
  %19 = load ptr, ptr %0, align 8
  %20 = sext i32 %15 to i64
  %21 = getelementptr inbounds i8, ptr %19, i64 %20
  %22 = load i8, ptr %21, align 1
  %.not30 = icmp eq i8 %22, -67
  br i1 %.not30, label %23, label %32

23:                                               ; preds = %18
  %24 = tail call i32 @find_among_b(ptr noundef nonnull %0, ptr noundef nonnull @a_58, i32 noundef 6) #2
  %.not31 = icmp eq i32 %24, 0
  br i1 %.not31, label %32, label %25

25:                                               ; preds = %23
  %26 = load i32, ptr %2, align 8
  %27 = load i32, ptr %16, align 8
  %28 = icmp sgt i32 %26, %27
  br i1 %28, label %32, label %29

29:                                               ; preds = %25
  %30 = tail call i32 @slice_from_s(ptr noundef nonnull %0, i32 noundef 4, ptr noundef nonnull @s_102) #2
  %31 = icmp sgt i32 %30, -1
  %spec.select = select i1 %31, i32 1, i32 %30
  br label %32

32:                                               ; preds = %29, %6, %25, %23, %11, %18, %1
  %.0 = phi i32 [ %9, %6 ], [ 0, %1 ], [ 0, %18 ], [ 0, %11 ], [ 0, %23 ], [ 0, %25 ], [ %spec.select, %29 ]
  ret i32 %.0
}